target datalayout = "e-m:e-p270:32:32-p271:32:32-p272:64:64-i64:64-i128:128-f80:128-n8:16:32:64-S128"
target triple = "x86_64-unknown-linux-gnu"

%"struct.facebook::velox::ByteRange" = type { ptr, i32, i32 }
%"class.std::vector" = type { %"struct.std::_Vector_base" }
%"struct.std::_Vector_base" = type { %"struct.std::_Vector_base<facebook::velox::ByteRange, std::allocator<facebook::velox::ByteRange>>::_Vector_impl" }
%"struct.std::_Vector_base<facebook::velox::ByteRange, std::allocator<facebook::velox::ByteRange>>::_Vector_impl" = type { %"struct.std::_Vector_base<facebook::velox::ByteRange, std::allocator<facebook::velox::ByteRange>>::_Vector_impl_data" }
%"struct.std::_Vector_base<facebook::velox::ByteRange, std::allocator<facebook::velox::ByteRange>>::_Vector_impl_data" = type { ptr, ptr, ptr }
%"class.facebook::velox::ByteOutputStream" = type <{ ptr, i8, i8, i8, [5 x i8], %"class.std::vector", i64, ptr, i32, [4 x i8] }>

; Function Attrs: mustprogress nounwind uwtable
define linkonce_odr noundef i32 @_ZN8facebook5velox4bits7roundUpIiiEET_S3_T0_(i32 noundef %value, i32 noundef %factor) #3 comdat {
entry:
  %value.addr = alloca i32, align 4
  %factor.addr = alloca i32, align 4
  store i32 %value, ptr %value.addr, align 4
  store i32 %factor, ptr %factor.addr, align 4
  %0 = load i32, ptr %value.addr, align 4
  %1 = load i32, ptr %factor.addr, align 4
  %sub = sub nsw i32 %1, 1
  %add = add nsw i32 %0, %sub
  %2 = load i32, ptr %factor.addr, align 4
  %div = sdiv i32 %add, %2
  %3 = load i32, ptr %factor.addr, align 4
  %mul = mul nsw i32 %div, %3
  ret i32 %mul
}

; Function Attrs: mustprogress uwtable
define linkonce_odr noundef i64 @_ZN8facebook5velox4bits6nbytesEi(i32 noundef %bits) #0 comdat {
entry:
  %bits.addr = alloca i32, align 4
  store i32 %bits, ptr %bits.addr, align 4
  %0 = load i32, ptr %bits.addr, align 4
  %call = call noundef i32 @_ZN8facebook5velox4bits7roundUpIiiEET_S3_T0_(i32 noundef %0, i32 noundef 8)
  %div = sdiv i32 %call, 8
  %conv = sext i32 %div to i64
  ret i64 %conv
}

; Function Attrs: mustprogress nounwind uwtable
define linkonce_odr noundef nonnull align 4 dereferenceable(4) ptr @_ZSt3minIiERKT_S2_S2_(ptr noundef nonnull align 4 dereferenceable(4) %__a, ptr noundef nonnull align 4 dereferenceable(4) %__b) #3 comdat {
entry:
  %retval = alloca ptr, align 8
  %__a.addr = alloca ptr, align 8
  %__b.addr = alloca ptr, align 8
  store ptr %__a, ptr %__a.addr, align 8
  store ptr %__b, ptr %__b.addr, align 8
  %0 = load ptr, ptr %__b.addr, align 8
  %1 = load i32, ptr %0, align 4
  %2 = load ptr, ptr %__a.addr, align 8
  %3 = load i32, ptr %2, align 4
  %cmp = icmp slt i32 %1, %3
  br i1 %cmp, label %if.then, label %if.end

if.then:                                          ; preds = %entry
  %4 = load ptr, ptr %__b.addr, align 8
  store ptr %4, ptr %retval, align 8
  br label %return

if.end:                                           ; preds = %entry
  %5 = load ptr, ptr %__a.addr, align 8
  store ptr %5, ptr %retval, align 8
  br label %return

return:                                           ; preds = %if.end, %if.then
  %6 = load ptr, ptr %retval, align 8
  ret ptr %6
}

; Function Attrs: mustprogress uwtable
define void @_ZN8facebook5velox16ByteOutputStream10appendBitsEPKmii(ptr noundef nonnull align 8 dereferenceable(60) %this, ptr noundef %bits, i32 noundef %begin, i32 noundef %end) #0 align 2 {
entry:
  %this.addr = alloca ptr, align 8
  %bits.addr = alloca ptr, align 8
  %begin.addr = alloca i32, align 4
  %end.addr = alloca i32, align 4
  %count = alloca i32, align 4
  %offset = alloca i32, align 4
  %bitsFit = alloca i32, align 4
  %ref.tmp = alloca i32, align 4
  %ref.tmp3 = alloca i32, align 4
  store ptr %this, ptr %this.addr, align 8
  store ptr %bits, ptr %bits.addr, align 8
  store i32 %begin, ptr %begin.addr, align 4
  store i32 %end, ptr %end.addr, align 4
  %this1 = load ptr, ptr %this.addr, align 8
  %0 = load i32, ptr %end.addr, align 4
  %1 = load i32, ptr %begin.addr, align 4
  %sub = sub nsw i32 %0, %1
  store i32 %sub, ptr %count, align 4
  store i32 0, ptr %offset, align 4
  br label %for.cond

for.cond:                                         ; preds = %if.end, %entry
  %2 = load i32, ptr %count, align 4
  %3 = load i32, ptr %offset, align 4
  %sub2 = sub nsw i32 %2, %3
  store i32 %sub2, ptr %ref.tmp, align 4
  %current_ = getelementptr inbounds %"class.facebook::velox::ByteOutputStream", ptr %this1, i32 0, i32 7
  %4 = load ptr, ptr %current_, align 8
  %size = getelementptr inbounds %"struct.facebook::velox::ByteRange", ptr %4, i32 0, i32 1
  %5 = load i32, ptr %size, align 8
  %current_4 = getelementptr inbounds %"class.facebook::velox::ByteOutputStream", ptr %this1, i32 0, i32 7
  %6 = load ptr, ptr %current_4, align 8
  %position = getelementptr inbounds %"struct.facebook::velox::ByteRange", ptr %6, i32 0, i32 2
  %7 = load i32, ptr %position, align 4
  %sub5 = sub nsw i32 %5, %7
  store i32 %sub5, ptr %ref.tmp3, align 4
  %call = call noundef nonnull align 4 dereferenceable(4) ptr @_ZSt3minIiERKT_S2_S2_(ptr noundef nonnull align 4 dereferenceable(4) %ref.tmp, ptr noundef nonnull align 4 dereferenceable(4) %ref.tmp3)
  %8 = load i32, ptr %call, align 4
  store i32 %8, ptr %bitsFit, align 4
  %9 = load ptr, ptr %bits.addr, align 8
  %10 = load i32, ptr %begin.addr, align 4
  %11 = load i32, ptr %offset, align 4
  %add = add nsw i32 %10, %11
  %conv = sext i32 %add to i64
  %current_6 = getelementptr inbounds %"class.facebook::velox::ByteOutputStream", ptr %this1, i32 0, i32 7
  %12 = load ptr, ptr %current_6, align 8
  %buffer = getelementptr inbounds %"struct.facebook::velox::ByteRange", ptr %12, i32 0, i32 0
  %13 = load ptr, ptr %buffer, align 8
  %current_7 = getelementptr inbounds %"class.facebook::velox::ByteOutputStream", ptr %this1, i32 0, i32 7
  %14 = load ptr, ptr %current_7, align 8
  %position8 = getelementptr inbounds %"struct.facebook::velox::ByteRange", ptr %14, i32 0, i32 2
  %15 = load i32, ptr %position8, align 4
  %conv9 = sext i32 %15 to i64
  %16 = load i32, ptr %bitsFit, align 4
  %conv10 = sext i32 %16 to i64
  call void @_ZN8facebook5velox4bits8copyBitsEPKmmPmmm(ptr noundef %9, i64 noundef %conv, ptr noundef %13, i64 noundef %conv9, i64 noundef %conv10)
  %17 = load i32, ptr %bitsFit, align 4
  %current_11 = getelementptr inbounds %"class.facebook::velox::ByteOutputStream", ptr %this1, i32 0, i32 7
  %18 = load ptr, ptr %current_11, align 8
  %position12 = getelementptr inbounds %"struct.facebook::velox::ByteRange", ptr %18, i32 0, i32 2
  %19 = load i32, ptr %position12, align 4
  %add13 = add nsw i32 %19, %17
  store i32 %add13, ptr %position12, align 4
  %20 = load i32, ptr %bitsFit, align 4
  %21 = load i32, ptr %offset, align 4
  %add14 = add nsw i32 %21, %20
  store i32 %add14, ptr %offset, align 4
  %22 = load i32, ptr %offset, align 4
  %23 = load i32, ptr %count, align 4
  %cmp = icmp eq i32 %22, %23
  br i1 %cmp, label %if.then, label %if.end

if.then:                                          ; preds = %for.cond
  ret void

if.end:                                           ; preds = %for.cond
  %24 = load i32, ptr %count, align 4
  %25 = load i32, ptr %offset, align 4
  %sub15 = sub nsw i32 %24, %25
  %call16 = call noundef i64 @_ZN8facebook5velox4bits6nbytesEi(i32 noundef %sub15)
  %conv17 = trunc i64 %call16 to i32
  call void @_ZN8facebook5velox16ByteOutputStream6extendEi(ptr noundef nonnull align 8 dereferenceable(60) %this1, i32 noundef %conv17)
  br label %for.cond, !llvm.loop !15
}