; Function Attrs: mustprogress uwtable
define void @_ZN8facebook5velox16ByteOutputStream10appendBitsEPKmii(ptr nocapture noundef nonnull align 8 dereferenceable(60) %this, ptr noundef %bits, i32 noundef %begin, i32 noundef %end) local_unnamed_addr #0 align 2 {
entry:
  %sub = sub nsw i32 %end, %begin
  %current_ = getelementptr inbounds i8, ptr %this, i64 48
  %sub15 = add i32 %sub, 7
  br label %for.cond

for.cond:                                         ; preds = %if.end, %entry
  %offset.0 = phi i32 [ 0, %entry ], [ %add14, %if.end ]
  %sub2 = sub nsw i32 %sub, %offset.0
  %0 = load ptr, ptr %current_, align 8
  %size = getelementptr inbounds i8, ptr %0, i64 8
  %1 = load i32, ptr %size, align 8
  %position = getelementptr inbounds i8, ptr %0, i64 12
  %2 = load i32, ptr %position, align 4
  %sub5 = sub nsw i32 %1, %2
  %.sroa.speculated = tail call i32 @llvm.smin.i32(i32 %sub5, i32 %sub2)
  %add = add nsw i32 %offset.0, %begin
  %conv = sext i32 %add to i64
  %3 = load ptr, ptr %0, align 8
  %conv9 = sext i32 %2 to i64
  %conv10 = sext i32 %.sroa.speculated to i64
  tail call void @_ZN8facebook5velox4bits8copyBitsEPKmmPmmm(ptr noundef %bits, i64 noundef %conv, ptr noundef %3, i64 noundef %conv9, i64 noundef %conv10)
  %4 = load ptr, ptr %current_, align 8
  %position12 = getelementptr inbounds i8, ptr %4, i64 12
  %5 = load i32, ptr %position12, align 4
  %add13 = add nsw i32 %5, %.sroa.speculated
  store i32 %add13, ptr %position12, align 4
  %add14 = add nsw i32 %.sroa.speculated, %offset.0
  %cmp = icmp eq i32 %add14, %sub
  br i1 %cmp, label %if.then, label %if.end

if.then:                                          ; preds = %for.cond
  ret void

if.end:                                           ; preds = %for.cond
  %add.i.i = sub i32 %sub15, %add14
  %div.i = sdiv i32 %add.i.i, 8
  tail call void @_ZN8facebook5velox16ByteOutputStream6extendEi(ptr noundef nonnull align 8 dereferenceable(60) %this, i32 noundef %div.i)
  br label %for.cond, !llvm.loop !15
}